target datalayout = "e-m:e-p270:32:32-p271:32:32-p272:64:64-i64:64-i128:128-f80:128-n8:16:32:64-S128"
target triple = "x86_64-pc-linux-gnu"

%struct.H5C_cache_entry_t = type { ptr, i64, i64, ptr, i8, ptr, i8, i8, i8, i8, i32, i8, i8, i8, i8, i8, i32, ptr, i32, i32, i32, i32, i32, i8, i8, ptr, ptr, ptr, ptr, ptr, ptr, i8, i32, i8, i64, ptr, i64, i64, i32, i8, i32, i32, i8, ptr, ptr, ptr }
%struct.H5HF_direct_t = type { %struct.H5C_cache_entry_t, ptr, ptr, ptr, i32, i64, i64, ptr, ptr, i64, i64 }

@H5HF_init_g = external global i8, align 1
@H5_libterm_g = external global i8, align 1
@.str.4 = private unnamed_addr constant [103 x i8] c"generated/home/dtcxzyw/WorkSpace/Projects/compilers/llvm-opt-benchmark/bench/hdf5/hdf5/src/H5HFcache.c\00", align 1
@H5E_HEAP_g = external global i64, align 8
@H5E_BADVALUE_g = external global i64, align 8
@H5E_CANTDEPEND_g = external global i64, align 8
@.str.31 = private unnamed_addr constant [34 x i8] c"unable to create flush dependency\00", align 1
@H5E_CANTUNDEPEND_g = external global i64, align 8
@.str.32 = private unnamed_addr constant [35 x i8] c"unable to destroy flush dependency\00", align 1
@H5E_ARGS_g = external global i64, align 8
@.str.33 = private unnamed_addr constant [35 x i8] c"unknown action from metadata cache\00", align 1
@__func__.H5HF__cache_dblock_notify = private unnamed_addr constant [26 x i8] c"H5HF__cache_dblock_notify\00", align 1

; Function Attrs: nounwind uwtable
define internal i32 @H5HF__cache_dblock_notify(i32 noundef %0, ptr noundef %1) #0 {
  %3 = alloca i32, align 4
  %4 = alloca ptr, align 8
  %5 = alloca ptr, align 8
  %6 = alloca i32, align 4
  %7 = alloca i8, align 1
  store i32 %0, ptr %3, align 4, !tbaa !43
  store ptr %1, ptr %4, align 8, !tbaa !3
  call void @llvm.lifetime.start.p0(i64 8, ptr %5) #8
  %8 = load ptr, ptr %4, align 8, !tbaa !3
  store ptr %8, ptr %5, align 8, !tbaa !169
  call void @llvm.lifetime.start.p0(i64 4, ptr %6) #8
  store i32 0, ptr %6, align 4, !tbaa !43
  call void @llvm.lifetime.start.p0(i64 1, ptr %7) #8
  store i8 0, ptr %7, align 1, !tbaa !11
  %9 = load i8, ptr @H5HF_init_g, align 1, !tbaa !11, !range !13, !noundef !14
  %10 = trunc i8 %9 to i1
  br i1 %10, label %15, label %11

11:                                               ; preds = %2
  %12 = load i8, ptr @H5_libterm_g, align 1, !tbaa !11, !range !13, !noundef !14
  %13 = trunc i8 %12 to i1
  %14 = xor i1 %13, true
  br label %15

15:                                               ; preds = %11, %2
  %16 = phi i1 [ true, %2 ], [ %14, %11 ]
  %17 = xor i1 %16, true
  %18 = xor i1 %17, true
  %19 = zext i1 %18 to i32
  %20 = sext i32 %19 to i64
  %21 = call i64 @llvm.expect.i64(i64 %20, i64 1)
  %22 = icmp ne i64 %21, 0
  br i1 %22, label %23, label %115

23:                                               ; preds = %15
  %24 = load i32, ptr %3, align 4, !tbaa !43
  switch i32 %24, label %94 [
    i32 0, label %25
    i32 1, label %25
    i32 2, label %58
    i32 4, label %58
    i32 5, label %58
    i32 6, label %58
    i32 7, label %58
    i32 8, label %58
    i32 9, label %58
    i32 3, label %59
  ]

25:                                               ; preds = %23, %23
  %26 = load ptr, ptr %5, align 8, !tbaa !169
  %27 = getelementptr inbounds nuw %struct.H5HF_direct_t, ptr %26, i32 0, i32 3
  %28 = load ptr, ptr %27, align 8, !tbaa !177
  %29 = icmp ne ptr %28, null
  br i1 %29, label %30, label %57

30:                                               ; preds = %25
  %31 = load ptr, ptr %5, align 8, !tbaa !169
  %32 = getelementptr inbounds nuw %struct.H5HF_direct_t, ptr %31, i32 0, i32 3
  %33 = load ptr, ptr %32, align 8, !tbaa !177
  %34 = load ptr, ptr %5, align 8, !tbaa !169
  %35 = call i32 @H5AC_create_flush_dependency(ptr noundef %33, ptr noundef %34)
  %36 = icmp slt i32 %35, 0
  br i1 %36, label %37, label %56

37:                                               ; preds = %30
  br label %38

38:                                               ; preds = %37
  br label %39

39:                                               ; preds = %38
  br label %40

40:                                               ; preds = %39
  %41 = load i64, ptr @H5E_HEAP_g, align 8, !tbaa !40
  %42 = load i64, ptr @H5E_CANTDEPEND_g, align 8, !tbaa !40
  %43 = call i32 (ptr, ptr, i32, i64, i64, ptr, ...) @H5E_printf_stack(ptr noundef @.str.4, ptr noundef @__func__.H5HF__cache_dblock_notify, i32 noundef 2400, i64 noundef %41, i64 noundef %42, ptr noundef @.str.31)
  br label %44

44:                                               ; preds = %40
  br label %45

45:                                               ; preds = %44
  store i8 1, ptr %7, align 1, !tbaa !11
  %46 = load i8, ptr %7, align 1, !tbaa !11, !range !13, !noundef !14
  %47 = trunc i8 %46 to i1
  %48 = zext i1 %47 to i8
  store i8 %48, ptr %7, align 1, !tbaa !11
  br label %49

49:                                               ; preds = %45
  br label %50

50:                                               ; preds = %49
  br label %51

51:                                               ; preds = %50
  store i32 -1, ptr %6, align 4, !tbaa !43
  br label %114

52:                                               ; No predecessors!
  br label %53

53:                                               ; preds = %52
  br label %54

54:                                               ; preds = %53
  br label %55

55:                                               ; preds = %54
  br label %56

56:                                               ; preds = %55, %30
  br label %57

57:                                               ; preds = %56, %25
  br label %113

58:                                               ; preds = %23, %23, %23, %23, %23, %23, %23
  br label %113

59:                                               ; preds = %23
  %60 = load ptr, ptr %5, align 8, !tbaa !169
  %61 = getelementptr inbounds nuw %struct.H5HF_direct_t, ptr %60, i32 0, i32 3
  %62 = load ptr, ptr %61, align 8, !tbaa !177
  %63 = icmp ne ptr %62, null
  br i1 %63, label %64, label %93

64:                                               ; preds = %59
  %65 = load ptr, ptr %5, align 8, !tbaa !169
  %66 = getelementptr inbounds nuw %struct.H5HF_direct_t, ptr %65, i32 0, i32 3
  %67 = load ptr, ptr %66, align 8, !tbaa !177
  %68 = load ptr, ptr %5, align 8, !tbaa !169
  %69 = call i32 @H5AC_destroy_flush_dependency(ptr noundef %67, ptr noundef %68)
  %70 = icmp slt i32 %69, 0
  br i1 %70, label %71, label %90

71:                                               ; preds = %64
  br label %72

72:                                               ; preds = %71
  br label %73

73:                                               ; preds = %72
  br label %74

74:                                               ; preds = %73
  %75 = load i64, ptr @H5E_HEAP_g, align 8, !tbaa !40
  %76 = load i64, ptr @H5E_CANTUNDEPEND_g, align 8, !tbaa !40
  %77 = call i32 (ptr, ptr, i32, i64, i64, ptr, ...) @H5E_printf_stack(ptr noundef @.str.4, ptr noundef @__func__.H5HF__cache_dblock_notify, i32 noundef 2417, i64 noundef %75, i64 noundef %76, ptr noundef @.str.32)
  br label %78

78:                                               ; preds = %74
  br label %79

79:                                               ; preds = %78
  store i8 1, ptr %7, align 1, !tbaa !11
  %80 = load i8, ptr %7, align 1, !tbaa !11, !range !13, !noundef !14
  %81 = trunc i8 %80 to i1
  %82 = zext i1 %81 to i8
  store i8 %82, ptr %7, align 1, !tbaa !11
  br label %83

83:                                               ; preds = %79
  br label %84

84:                                               ; preds = %83
  br label %85

85:                                               ; preds = %84
  store i32 -1, ptr %6, align 4, !tbaa !43
  br label %114

86:                                               ; No predecessors!
  br label %87

87:                                               ; preds = %86
  br label %88

88:                                               ; preds = %87
  br label %89

89:                                               ; preds = %88
  br label %90

90:                                               ; preds = %89, %64
  %91 = load ptr, ptr %5, align 8, !tbaa !169
  %92 = getelementptr inbounds nuw %struct.H5HF_direct_t, ptr %91, i32 0, i32 3
  store ptr null, ptr %92, align 8, !tbaa !177
  br label %93

93:                                               ; preds = %90, %59
  br label %113

94:                                               ; preds = %23
  br label %95

95:                                               ; preds = %94
  br label %96

96:                                               ; preds = %95
  br label %97

97:                                               ; preds = %96
  %98 = load i64, ptr @H5E_ARGS_g, align 8, !tbaa !40
  %99 = load i64, ptr @H5E_BADVALUE_g, align 8, !tbaa !40
  %100 = call i32 (ptr, ptr, i32, i64, i64, ptr, ...) @H5E_printf_stack(ptr noundef @.str.4, ptr noundef @__func__.H5HF__cache_dblock_notify, i32 noundef 2423, i64 noundef %98, i64 noundef %99, ptr noundef @.str.33)
  br label %101

101:                                              ; preds = %97
  br label %102

102:                                              ; preds = %101
  store i8 1, ptr %7, align 1, !tbaa !11
  %103 = load i8, ptr %7, align 1, !tbaa !11, !range !13, !noundef !14
  %104 = trunc i8 %103 to i1
  %105 = zext i1 %104 to i8
  store i8 %105, ptr %7, align 1, !tbaa !11
  br label %106

106:                                              ; preds = %102
  br label %107

107:                                              ; preds = %106
  br label %108

108:                                              ; preds = %107
  store i32 -1, ptr %6, align 4, !tbaa !43
  br label %114

109:                                              ; No predecessors!
  br label %110

110:                                              ; preds = %109
  br label %111

111:                                              ; preds = %110
  br label %112

112:                                              ; preds = %111
  br label %113

113:                                              ; preds = %112, %93, %58, %57
  br label %114

114:                                              ; preds = %113, %108, %85, %51
  br label %115

115:                                              ; preds = %114, %15
  %116 = load i32, ptr %6, align 4, !tbaa !43
  call void @llvm.lifetime.end.p0(i64 1, ptr %7) #8
  call void @llvm.lifetime.end.p0(i64 4, ptr %6) #8
  call void @llvm.lifetime.end.p0(i64 8, ptr %5) #8
  ret i32 %116
}